target datalayout = "e-m:e-p270:32:32-p271:32:32-p272:64:64-i64:64-i128:128-f80:128-n8:16:32:64-S128"
target triple = "x86_64-pc-linux-gnu"

%struct._object = type { %union.anon.41, ptr }
%union.anon.41 = type { i64 }
%struct.anon.42 = type { i32, i32 }
%struct.PyStatus = type { i32, ptr, ptr, i32 }

@.str.205 = private unnamed_addr constant [5 x i8] c"site\00", align 1
@__func__.init_import_site = private unnamed_addr constant [17 x i8] c"init_import_site\00", align 1
@.str.206 = private unnamed_addr constant [33 x i8] c"Failed to import the site module\00", align 1

; Function Attrs: alwaysinline nounwind uwtable
define internal i32 @_Py_IsImmortal(ptr noundef %0) #12 {
  %2 = alloca ptr, align 8
  store ptr %0, ptr %2, align 8, !tbaa !232
  %3 = load ptr, ptr %2, align 8, !tbaa !232
  %4 = getelementptr inbounds nuw %struct._object, ptr %3, i32 0, i32 0
  %5 = getelementptr inbounds nuw %struct.anon.42, ptr %4, i32 0, i32 0
  %6 = load i32, ptr %5, align 8, !tbaa !181
  %7 = icmp slt i32 %6, 0
  %8 = zext i1 %7 to i32
  ret i32 %8
}

; Function Attrs: alwaysinline nounwind uwtable
define internal void @Py_DECREF(ptr noundef %0) #12 {
  %2 = alloca ptr, align 8
  store ptr %0, ptr %2, align 8, !tbaa !232
  %3 = load ptr, ptr %2, align 8, !tbaa !232
  %4 = call i32 @_Py_IsImmortal(ptr noundef %3)
  %5 = icmp ne i32 %4, 0
  br i1 %5, label %6, label %7

6:                                                ; preds = %1
  br label %16

7:                                                ; preds = %1
  %8 = load ptr, ptr %2, align 8, !tbaa !232
  %9 = getelementptr inbounds nuw %struct._object, ptr %8, i32 0, i32 0
  %10 = getelementptr inbounds nuw %struct.anon.42, ptr %9, i32 0, i32 0
  %11 = load i32, ptr %10, align 8, !tbaa !181
  %12 = add i32 %11, -1
  store i32 %12, ptr %10, align 8, !tbaa !181
  %13 = icmp eq i32 %12, 0
  br i1 %13, label %14, label %16

14:                                               ; preds = %7
  %15 = load ptr, ptr %2, align 8, !tbaa !232
  call void @_Py_Dealloc(ptr noundef %15)
  br label %16

16:                                               ; preds = %6, %14, %7
  ret void
}

; Function Attrs: nounwind uwtable
define internal void @init_import_site(ptr dead_on_unwind noalias writable sret(%struct.PyStatus) align 8 %0) #1 {
  %2 = alloca ptr, align 8
  %3 = alloca i32, align 4
  call void @llvm.lifetime.start.p0(i64 8, ptr %2) #14
  %4 = call ptr @PyImport_ImportModule(ptr noundef @.str.205)
  store ptr %4, ptr %2, align 8, !tbaa !232
  %5 = load ptr, ptr %2, align 8, !tbaa !232
  %6 = icmp eq ptr %5, null
  br i1 %6, label %7, label %14

7:                                                ; preds = %1
  %8 = getelementptr inbounds nuw %struct.PyStatus, ptr %0, i32 0, i32 0
  store i32 1, ptr %8, align 8, !tbaa !8
  %9 = getelementptr i8, ptr %0, i64 4
  call void @llvm.memset.p0.i64(ptr align 4 %9, i8 0, i64 4, i1 false)
  %10 = getelementptr inbounds nuw %struct.PyStatus, ptr %0, i32 0, i32 1
  store ptr @__func__.init_import_site, ptr %10, align 8, !tbaa !194
  %11 = getelementptr inbounds nuw %struct.PyStatus, ptr %0, i32 0, i32 2
  store ptr @.str.206, ptr %11, align 8, !tbaa !195
  %12 = getelementptr inbounds nuw %struct.PyStatus, ptr %0, i32 0, i32 3
  store i32 0, ptr %12, align 8, !tbaa !196
  %13 = getelementptr i8, ptr %0, i64 28
  call void @llvm.memset.p0.i64(ptr align 4 %13, i8 0, i64 4, i1 false)
  store i32 1, ptr %3, align 4
  br label %17

14:                                               ; preds = %1
  %15 = load ptr, ptr %2, align 8, !tbaa !232
  call void @Py_DECREF(ptr noundef %15)
  call void @llvm.memset.p0.i64(ptr align 8 %0, i8 0, i64 32, i1 false)
  %16 = getelementptr inbounds nuw %struct.PyStatus, ptr %0, i32 0, i32 0
  store i32 0, ptr %16, align 8, !tbaa !8
  store i32 1, ptr %3, align 4
  br label %17

17:                                               ; preds = %14, %7
  call void @llvm.lifetime.end.p0(i64 8, ptr %2) #14
  ret void
}