; Function Attrs: nounwind uwtable
define internal fastcc void @init_import_site(ptr dead_on_unwind noalias nonnull writable writeonly align 8 captures(none) initializes((0, 32)) %0) unnamed_addr #1 {
  %2 = tail call ptr @PyImport_ImportModule(ptr noundef nonnull @.str.205) #23
  %3 = icmp eq ptr %2, null
  br i1 %3, label %4, label %10

4:                                                ; preds = %1
  store i32 1, ptr %0, align 8, !tbaa !183
  %5 = getelementptr inbounds nuw i8, ptr %0, i64 4
  store i32 0, ptr %5, align 4
  %6 = getelementptr inbounds nuw i8, ptr %0, i64 8
  store ptr @__func__.init_import_site, ptr %6, align 8, !tbaa !185
  %7 = getelementptr inbounds nuw i8, ptr %0, i64 16
  store ptr @.str.206, ptr %7, align 8, !tbaa !186
  %8 = getelementptr inbounds nuw i8, ptr %0, i64 24
  store i32 0, ptr %8, align 8, !tbaa !187
  %9 = getelementptr inbounds nuw i8, ptr %0, i64 28
  store i32 0, ptr %9, align 4
  br label %16

10:                                               ; preds = %1
  %11 = load i32, ptr %2, align 8, !tbaa !176
  %.not.i = icmp sgt i32 %11, -1
  br i1 %.not.i, label %12, label %Py_DECREF.exit

12:                                               ; preds = %10
  %13 = add nsw i32 %11, -1
  store i32 %13, ptr %2, align 8, !tbaa !176
  %14 = icmp eq i32 %13, 0
  br i1 %14, label %15, label %Py_DECREF.exit

15:                                               ; preds = %12
  tail call void @_Py_Dealloc(ptr noundef nonnull %2) #23
  br label %Py_DECREF.exit

Py_DECREF.exit:                                   ; preds = %10, %12, %15
  tail call void @llvm.memset.p0.i64(ptr noundef nonnull align 8 dereferenceable(32) %0, i8 0, i64 32, i1 false)
  br label %16

16:                                               ; preds = %Py_DECREF.exit, %4
  ret void
}